; ModuleID = '15/1408.c'
source_filename = "15/1408.c"
target datalayout = "e-m:e-p270:32:32-p271:32:32-p272:64:64-i64:64-f80:128-n8:16:32:64-S128"
target triple = "x86_64-pc-linux-gnu"

@.str = private unnamed_addr constant [3 x i8] c"%d\00", align 1

; Function Attrs: noinline nounwind uwtable
define dso_local i32 @main() #0 {
  %1 = alloca i32, align 4
  %2 = alloca i32, align 4
  %3 = alloca i8*, align 8
  %4 = alloca i64, align 8
  %5 = alloca i64, align 8
  %6 = alloca i32, align 4
  %7 = alloca i32, align 4
  %8 = alloca i32, align 4
  %9 = alloca i32, align 4
  %10 = alloca i32, align 4
  %11 = alloca i32, align 4
  %12 = alloca i32, align 4
  store i32 0, i32* %1, align 4
  %13 = call i32 (i8*, ...) @__isoc99_scanf(i8* getelementptr inbounds ([3 x i8], [3 x i8]* @.str, i64 0, i64 0), i32* %2)
  %14 = load i32, i32* %2, align 4
  %15 = zext i32 %14 to i64
  %16 = load i32, i32* %2, align 4
  %17 = zext i32 %16 to i64
  %18 = call i8* @llvm.stacksave()
  store i8* %18, i8** %3, align 8
  %19 = mul nuw i64 %15, %17
  %20 = alloca i32, i64 %19, align 16
  store i64 %15, i64* %4, align 8
  store i64 %17, i64* %5, align 8
  store i32 0, i32* %6, align 4
  br label %21

21:                                               ; preds = %43, %0
  %22 = load i32, i32* %6, align 4
  %23 = load i32, i32* %2, align 4
  %24 = icmp slt i32 %22, %23
  br i1 %24, label %25, label %46

25:                                               ; preds = %21
  store i32 0, i32* %7, align 4
  br label %26

26:                                               ; preds = %39, %25
  %27 = load i32, i32* %7, align 4
  %28 = load i32, i32* %2, align 4
  %29 = icmp slt i32 %27, %28
  br i1 %29, label %30, label %42

30:                                               ; preds = %26
  %31 = load i32, i32* %6, align 4
  %32 = sext i32 %31 to i64
  %33 = mul nsw i64 %32, %17
  %34 = getelementptr inbounds i32, i32* %20, i64 %33
  %35 = load i32, i32* %7, align 4
  %36 = sext i32 %35 to i64
  %37 = getelementptr inbounds i32, i32* %34, i64 %36
  %38 = call i32 (i8*, ...) @__isoc99_scanf(i8* getelementptr inbounds ([3 x i8], [3 x i8]* @.str, i64 0, i64 0), i32* %37)
  br label %39

39:                                               ; preds = %30
  %40 = load i32, i32* %7, align 4
  %41 = add nsw i32 %40, 1
  store i32 %41, i32* %7, align 4
  br label %26

42:                                               ; preds = %26
  br label %43

43:                                               ; preds = %42
  %44 = load i32, i32* %6, align 4
  %45 = add nsw i32 %44, 1
  store i32 %45, i32* %6, align 4
  br label %21

46:                                               ; preds = %21
  store i32 0, i32* %6, align 4
  br label %47

47:                                               ; preds = %131, %46
  %48 = load i32, i32* %6, align 4
  %49 = load i32, i32* %2, align 4
  %50 = icmp slt i32 %48, %49
  br i1 %50, label %51, label %134

51:                                               ; preds = %47
  store i32 0, i32* %7, align 4
  br label %52

52:                                               ; preds = %127, %51
  %53 = load i32, i32* %7, align 4
  %54 = load i32, i32* %2, align 4
  %55 = icmp slt i32 %53, %54
  br i1 %55, label %56, label %130

56:                                               ; preds = %52
  %57 = load i32, i32* %6, align 4
  %58 = sext i32 %57 to i64
  %59 = mul nsw i64 %58, %17
  %60 = getelementptr inbounds i32, i32* %20, i64 %59
  %61 = load i32, i32* %7, align 4
  %62 = sext i32 %61 to i64
  %63 = getelementptr inbounds i32, i32* %60, i64 %62
  %64 = load i32, i32* %63, align 4
  %65 = icmp eq i32 %64, 0
  br i1 %65, label %66, label %91

66:                                               ; preds = %56
  %67 = load i32, i32* %6, align 4
  %68 = sext i32 %67 to i64
  %69 = mul nsw i64 %68, %17
  %70 = getelementptr inbounds i32, i32* %20, i64 %69
  %71 = load i32, i32* %7, align 4
  %72 = sub nsw i32 %71, 1
  %73 = sext i32 %72 to i64
  %74 = getelementptr inbounds i32, i32* %70, i64 %73
  %75 = load i32, i32* %74, align 4
  %76 = icmp eq i32 %75, 255
  br i1 %76, label %77, label %91

77:                                               ; preds = %66
  %78 = load i32, i32* %6, align 4
  %79 = sub nsw i32 %78, 1
  %80 = sext i32 %79 to i64
  %81 = mul nsw i64 %80, %17
  %82 = getelementptr inbounds i32, i32* %20, i64 %81
  %83 = load i32, i32* %7, align 4
  %84 = sext i32 %83 to i64
  %85 = getelementptr inbounds i32, i32* %82, i64 %84
  %86 = load i32, i32* %85, align 4
  %87 = icmp ne i32 %86, 0
  br i1 %87, label %88, label %91

88:                                               ; preds = %77
  %89 = load i32, i32* %6, align 4
  store i32 %89, i32* %8, align 4
  %90 = load i32, i32* %7, align 4
  store i32 %90, i32* %9, align 4
  br label %91

91:                                               ; preds = %88, %77, %66, %56
  %92 = load i32, i32* %6, align 4
  %93 = sext i32 %92 to i64
  %94 = mul nsw i64 %93, %17
  %95 = getelementptr inbounds i32, i32* %20, i64 %94
  %96 = load i32, i32* %7, align 4
  %97 = sext i32 %96 to i64
  %98 = getelementptr inbounds i32, i32* %95, i64 %97
  %99 = load i32, i32* %98, align 4
  %100 = icmp eq i32 %99, 0
  br i1 %100, label %101, label %126

101:                                              ; preds = %91
  %102 = load i32, i32* %6, align 4
  %103 = sext i32 %102 to i64
  %104 = mul nsw i64 %103, %17
  %105 = getelementptr inbounds i32, i32* %20, i64 %104
  %106 = load i32, i32* %7, align 4
  %107 = add nsw i32 %106, 1
  %108 = sext i32 %107 to i64
  %109 = getelementptr inbounds i32, i32* %105, i64 %108
  %110 = load i32, i32* %109, align 4
  %111 = icmp eq i32 %110, 255
  br i1 %111, label %112, label %126

112:                                              ; preds = %101
  %113 = load i32, i32* %6, align 4
  %114 = add nsw i32 %113, 1
  %115 = sext i32 %114 to i64
  %116 = mul nsw i64 %115, %17
  %117 = getelementptr inbounds i32, i32* %20, i64 %116
  %118 = load i32, i32* %7, align 4
  %119 = sext i32 %118 to i64
  %120 = getelementptr inbounds i32, i32* %117, i64 %119
  %121 = load i32, i32* %120, align 4
  %122 = icmp ne i32 %121, 0
  br i1 %122, label %123, label %126

123:                                              ; preds = %112
  %124 = load i32, i32* %6, align 4
  store i32 %124, i32* %10, align 4
  %125 = load i32, i32* %7, align 4
  store i32 %125, i32* %11, align 4
  br label %126

126:                                              ; preds = %123, %112, %101, %91
  br label %127

127:                                              ; preds = %126
  %128 = load i32, i32* %7, align 4
  %129 = add nsw i32 %128, 1
  store i32 %129, i32* %7, align 4
  br label %52

130:                                              ; preds = %52
  br label %131

131:                                              ; preds = %130
  %132 = load i32, i32* %6, align 4
  %133 = add nsw i32 %132, 1
  store i32 %133, i32* %6, align 4
  br label %47

134:                                              ; preds = %47
  %135 = load i32, i32* %10, align 4
  %136 = load i32, i32* %8, align 4
  %137 = sub nsw i32 %135, %136
  %138 = sub nsw i32 %137, 1
  %139 = load i32, i32* %11, align 4
  %140 = load i32, i32* %9, align 4
  %141 = sub nsw i32 %139, %140
  %142 = sub nsw i32 %141, 1
  %143 = mul nsw i32 %138, %142
  store i32 %143, i32* %12, align 4
  %144 = load i32, i32* %12, align 4
  %145 = call i32 (i8*, ...) @printf(i8* getelementptr inbounds ([3 x i8], [3 x i8]* @.str, i64 0, i64 0), i32 %144)
  store i32 0, i32* %1, align 4
  %146 = load i8*, i8** %3, align 8
  call void @llvm.stackrestore(i8* %146)
  %147 = load i32, i32* %1, align 4
  ret i32 %147
}

declare dso_local i32 @__isoc99_scanf(i8*, ...) #1

; Function Attrs: nounwind
declare i8* @llvm.stacksave() #2

declare dso_local i32 @printf(i8*, ...) #1

; Function Attrs: nounwind
declare void @llvm.stackrestore(i8*) #2


!llvm.module.flags = !{!0}
!llvm.ident = !{!1}

!0 = !{i32 1, !"wchar_size", i32 4}
!1 = !{!"clang version 10.0.0-4ubuntu1 "}
